	.file	"vm.c"
	.option nopic
	.attribute arch, "rv64i2p0_m2p0_a2p0_f2p0_d2p0"
	.attribute unaligned_access, 0
	.attribute stack_align, 16
	.text
.Ltext0:
	.cfi_sections	.debug_frame
	.section	.text.create_mapping,"ax",@progbits
	.align	2
	.globl	create_mapping
	.type	create_mapping, @function
create_mapping:
.LFB0:
	.file 1 "vm.c"
	.loc 1 12 1
	.cfi_startproc
.LVL0:
	.loc 1 14 9
	.loc 1 15 9
	.loc 1 15 25 is_stmt 0
	srli	t1,a1,21
	.loc 1 15 13
	andi	t1,t1,511
.LVL1:
	.loc 1 16 9 is_stmt 1
	.loc 1 16 25 is_stmt 0
	srli	a7,a1,12
	.loc 1 16 13
	andi	a7,a7,511
.LVL2:
	.loc 1 18 9 is_stmt 1
	.loc 1 19 9
	.loc 1 14 25 is_stmt 0
	srli	a5,a1,30
	.loc 1 19 19
	andi	a5,a5,511
	slli	a5,a5,3
	add	a0,a0,a5
.LVL3:
	.loc 1 19 27
	ld	a5,0(a0)
	andi	a5,a5,1
	.loc 1 19 12
	bne	a5,zero,.L2
	.loc 1 21 13 is_stmt 1
	.loc 1 21 16 is_stmt 0
	lla	a5,.LANCHOR0
	ld	a3,0(a5)
.LVL4:
	addi	a3,a3,1
	sd	a3,0(a5)
	.loc 1 22 13 is_stmt 1
	.loc 1 22 74 is_stmt 0
	slli	a3,a3,12
	.loc 1 22 65
	lla	a6,_end
	add	a6,a3,a6
.LVL5:
	.loc 1 23 13 is_stmt 1
.LBB2:
	.loc 1 23 18
	.loc 1 23 29
	li	a3,4096
	add	a3,a6,a3
.LBE2:
	.loc 1 22 65 is_stmt 0
	mv	a5,a6
.LVL6:
.L3:
.LBB3:
	.loc 1 24 17 is_stmt 1 discriminator 3
	.loc 1 24 33 is_stmt 0 discriminator 3
	sd	zero,0(a5)
	.loc 1 23 38 is_stmt 1 discriminator 3
.LVL7:
	.loc 1 23 29 discriminator 3
	.loc 1 23 13 is_stmt 0 discriminator 3
	addi	a5,a5,8
.LVL8:
	bne	a5,a3,.L3
.LBE3:
	.loc 1 25 13 is_stmt 1
	.loc 1 26 13
	.loc 1 25 64 is_stmt 0
	srli	a3,a6,12
	.loc 1 25 71
	slli	a3,a3,10
	.loc 1 25 26
	ld	a5,0(a0)
.LVL9:
	or	a3,a3,a5
	.loc 1 26 26
	ori	a3,a3,1
	sd	a3,0(a0)
.LVL10:
.L2:
	.loc 1 28 9 is_stmt 1
	.loc 1 30 9
	.loc 1 31 9
	.loc 1 28 47 is_stmt 0
	ld	a1,0(a0)
.LVL11:
	srli	a1,a1,10
	.loc 1 28 54
	slli	a1,a1,12
.LVL12:
	.loc 1 31 26
	slli	t1,t1,3
.LVL13:
	add	a1,a1,t1
.LVL14:
	.loc 1 31 34
	ld	a5,0(a1)
	andi	a5,a5,1
	.loc 1 31 12
	bne	a5,zero,.L4
	.loc 1 33 13 is_stmt 1
	.loc 1 33 16 is_stmt 0
	lla	a3,.LANCHOR0
	ld	a5,0(a3)
	addi	a5,a5,1
	sd	a5,0(a3)
.LVL15:
	.loc 1 34 13 is_stmt 1
	.loc 1 34 73 is_stmt 0
	slli	a5,a5,12
	.loc 1 34 64
	lla	a0,_end
	add	a0,a5,a0
.LVL16:
	.loc 1 35 13 is_stmt 1
.LBB4:
	.loc 1 35 18
	.loc 1 35 29
	li	a3,4096
	add	a3,a0,a3
.LBE4:
	.loc 1 34 64 is_stmt 0
	mv	a5,a0
.LVL17:
.L5:
.LBB5:
	.loc 1 36 17 is_stmt 1 discriminator 3
	.loc 1 36 32 is_stmt 0 discriminator 3
	sd	zero,0(a5)
	.loc 1 35 38 is_stmt 1 discriminator 3
.LVL18:
	.loc 1 35 29 discriminator 3
	.loc 1 35 13 is_stmt 0 discriminator 3
	addi	a5,a5,8
.LVL19:
	bne	a5,a3,.L5
.LBE5:
	.loc 1 37 13 is_stmt 1
	.loc 1 38 13
	.loc 1 37 70 is_stmt 0
	srli	a5,a0,12
.LVL20:
	.loc 1 37 77
	slli	a5,a5,10
	.loc 1 37 33
	ld	a3,0(a1)
	or	a5,a5,a3
	.loc 1 38 33
	ori	a5,a5,1
	sd	a5,0(a1)
.LVL21:
.L4:
	.loc 1 40 9 is_stmt 1
	.loc 1 42 9
	.loc 1 40 53 is_stmt 0
	ld	a5,0(a1)
	srli	a5,a5,10
	.loc 1 40 60
	slli	a5,a5,12
.LVL22:
	.loc 1 42 25
	slli	a7,a7,3
.LVL23:
	add	a7,a5,a7
	ld	a3,0(a7)
	.loc 1 42 33
	andi	a5,a3,1
.LVL24:
	.loc 1 42 12
	bne	a5,zero,.L1
	.loc 1 44 13 is_stmt 1
	.loc 1 45 13
	.loc 1 46 13
	.loc 1 44 39 is_stmt 0
	srli	a5,a2,12
	.loc 1 44 46
	slli	a5,a5,10
	.loc 1 46 40
	slliw	a4,a4,1
.LVL25:
	.loc 1 46 32
	or	a4,a4,a3
	or	a5,a5,a4
	ori	a5,a5,1
	sd	a5,0(a7)
.LVL26:
.L1:
	.loc 1 48 1
	ret
	.cfi_endproc
.LFE0:
	.size	create_mapping, .-create_mapping
	.section	.text.paging_init,"ax",@progbits
	.align	2
	.globl	paging_init
	.type	paging_init, @function
paging_init:
.LFB1:
	.loc 1 54 1 is_stmt 1
	.cfi_startproc
	addi	sp,sp,-48
	.cfi_def_cfa_offset 48
	sd	ra,40(sp)
	sd	s0,32(sp)
	sd	s1,24(sp)
	sd	s2,16(sp)
	sd	s3,8(sp)
	sd	s4,0(sp)
	.cfi_offset 1, -8
	.cfi_offset 8, -16
	.cfi_offset 9, -24
	.cfi_offset 18, -32
	.cfi_offset 19, -40
	.cfi_offset 20, -48
	.loc 1 55 5
.LVL27:
	.loc 1 57 5
.LBB6:
	.loc 1 57 10
	.loc 1 57 21
	lla	a5,_end
	lla	a4,_end+4096
.LVL28:
.L11:
	.loc 1 59 9 discriminator 3
	.loc 1 59 18 is_stmt 0 discriminator 3
	sd	zero,0(a5)
	.loc 1 57 30 is_stmt 1 discriminator 3
.LVL29:
	.loc 1 57 21 discriminator 3
	.loc 1 57 5 is_stmt 0 discriminator 3
	addi	a5,a5,8
.LVL30:
	bne	a4,a5,.L11
.LVL31:
.LBE6:
.LBB7:
	.loc 1 69 46 is_stmt 1
	.loc 1 69 100 is_stmt 0
	lla	s4,text_start
	li	a5,1
.LVL32:
	slli	a5,a5,31
	lla	s1,rodata_start
	add	s1,s1,a5
	sub	s1,s1,s4
	.loc 1 69 5
	bleu	s1,a5,.L12
	.loc 1 69 29
	mv	s0,a5
	.loc 1 71 9
	li	s3,-65
	slli	s3,s3,31
	lla	s2,_end
.LVL33:
.L13:
	.loc 1 71 9 is_stmt 1 discriminator 3
	li	a4,5
	li	a3,4096
	mv	a2,s0
	add	a1,s0,s3
	mv	a0,s2
	call	create_mapping
.LVL34:
	.loc 1 72 9 discriminator 3
	li	a4,5
	li	a3,4096
	mv	a2,s0
	mv	a1,s0
	mv	a0,s2
	call	create_mapping
.LVL35:
	.loc 1 69 137 discriminator 3
	.loc 1 69 140 is_stmt 0 discriminator 3
	li	a5,4096
	add	s0,s0,a5
.LVL36:
	.loc 1 69 46 is_stmt 1 discriminator 3
	.loc 1 69 5 is_stmt 0 discriminator 3
	bltu	s0,s1,.L13
.LVL37:
.L12:
.LBE7:
.LBB8:
	.loc 1 76 120 is_stmt 1
	.loc 1 76 172 is_stmt 0
	lla	s0,data_start
	li	a5,1
	slli	a5,a5,31
	add	s0,s0,a5
	sub	s0,s0,s4
	.loc 1 76 5
	bleu	s0,s1,.L14
	.loc 1 78 9
	li	s3,-65
	slli	s3,s3,31
	lla	s2,_end
.L15:
	.loc 1 78 9 is_stmt 1 discriminator 3
	li	a4,1
	li	a3,4096
	mv	a2,s1
	add	a1,s1,s3
	mv	a0,s2
	call	create_mapping
.LVL38:
	.loc 1 79 9 discriminator 3
	li	a4,1
	li	a3,4096
	mv	a2,s1
	mv	a1,s1
	mv	a0,s2
	call	create_mapping
.LVL39:
	.loc 1 76 209 discriminator 3
	.loc 1 76 212 is_stmt 0 discriminator 3
	li	a5,4096
	add	s1,s1,a5
.LVL40:
	.loc 1 76 120 is_stmt 1 discriminator 3
	.loc 1 76 5 is_stmt 0 discriminator 3
	bltu	s1,s0,.L15
.L14:
.LVL41:
.LBE8:
.LBB9:
	.loc 1 83 117 is_stmt 1
	.loc 1 83 5 is_stmt 0
	li	a5,129
	slli	a5,a5,24
	bgeu	s0,a5,.L16
	.loc 1 85 9
	li	s3,-65
	slli	s3,s3,31
	lla	s1,_end
.LVL42:
	.loc 1 83 5
	mv	s2,a5
.L17:
	.loc 1 85 9 is_stmt 1 discriminator 3
	li	a4,3
	li	a3,4096
	mv	a2,s0
	add	a1,s0,s3
	mv	a0,s1
	call	create_mapping
.LVL43:
	.loc 1 86 9 discriminator 3
	li	a4,3
	li	a3,4096
	mv	a2,s0
	mv	a1,s0
	mv	a0,s1
	call	create_mapping
.LVL44:
	.loc 1 83 134 discriminator 3
	.loc 1 83 137 is_stmt 0 discriminator 3
	li	a5,4096
	add	s0,s0,a5
.LVL45:
	.loc 1 83 117 is_stmt 1 discriminator 3
	.loc 1 83 5 is_stmt 0 discriminator 3
	bltu	s0,s2,.L17
.L16:
.LVL46:
.LBE9:
.LBB10:
	.loc 1 90 46 is_stmt 1
	.loc 1 92 9
	li	a4,3
	li	a3,4096
	li	a2,268435456
	li	a1,268435456
	lla	a0,_end
	call	create_mapping
.LVL47:
	.loc 1 90 63
	.loc 1 90 46
.LBE10:
	.loc 1 94 1 is_stmt 0
	ld	ra,40(sp)
	.cfi_restore 1
	ld	s0,32(sp)
	.cfi_restore 8
.LVL48:
	ld	s1,24(sp)
	.cfi_restore 9
	ld	s2,16(sp)
	.cfi_restore 18
	ld	s3,8(sp)
	.cfi_restore 19
	ld	s4,0(sp)
	.cfi_restore 20
	addi	sp,sp,48
	.cfi_def_cfa_offset 0
	jr	ra
	.cfi_endproc
.LFE1:
	.size	paging_init, .-paging_init
	.globl	cur
	.section	.sbss.cur,"aw",@nobits
	.align	3
	.set	.LANCHOR0,. + 0
	.type	cur, @object
	.size	cur, 8
cur:
	.zero	8
	.text
.Letext0:
	.file 2 "/home/oslab/lab4/arch/riscv/include/vm.h"